target datalayout = "e-m:e-p270:32:32-p271:32:32-p272:64:64-i64:64-i128:128-f80:128-n8:16:32:64-S128"
target triple = "x86_64-pc-linux-gnu"

%"class.ozz::options::internal::Registrer" = type { %"class.ozz::options::TypedOption" }
%"class.ozz::options::TypedOption" = type { %"class.ozz::options::Option", ptr, ptr }
%"class.ozz::options::Option" = type { ptr, ptr, ptr, i8, i8, ptr }
%"class.ozz::log::Logger.base" = type <{ ptr, i8 }>
%"class.ozz::log::LogV" = type { %"class.ozz::log::Logger.base", [7 x i8] }
%"class.ozz::log::Logger" = type <{ ptr, i8, [7 x i8] }>
%"class.std::ios_base" = type { ptr, i64, i64, i32, i32, i32, ptr, %"struct.std::ios_base::_Words", [8 x %"struct.std::ios_base::_Words"], i32, ptr, %"class.std::locale" }
%"struct.std::ios_base::_Words" = type { ptr, i64 }
%"class.std::locale" = type { ptr }

@_ZL17OPTIONS_log_level = internal global %"class.ozz::options::internal::Registrer" zeroinitializer, align 8
@.str.16 = private unnamed_addr constant [9 x i8] c"standard\00", align 1
@.str.17 = private unnamed_addr constant [7 x i8] c"silent\00", align 1
@.str.18 = private unnamed_addr constant [8 x i8] c"verbose\00", align 1
@.str.19 = private unnamed_addr constant [29 x i8] c"Verbose log level activated.\00", align 1

; Function Attrs: inlinehint mustprogress nounwind uwtable
define linkonce_odr dso_local noundef i32 @_ZStorSt12_Ios_IostateS_(i32 noundef %0, i32 noundef %1) #6 comdat {
  %3 = alloca i32, align 4
  %4 = alloca i32, align 4
  store i32 %0, ptr %3, align 4, !tbaa !59
  store i32 %1, ptr %4, align 4, !tbaa !59
  %5 = load i32, ptr %3, align 4, !tbaa !59
  %6 = load i32, ptr %4, align 4, !tbaa !59
  %7 = or i32 %5, %6
  ret i32 %7
}

; Function Attrs: mustprogress nounwind uwtable
define available_externally noundef i32 @_ZNKSt9basic_iosIcSt11char_traitsIcEE7rdstateEv(ptr noundef nonnull align 8 dereferenceable(264) %0) #8 align 2 {
  %2 = alloca ptr, align 8
  store ptr %0, ptr %2, align 8, !tbaa !57
  %3 = load ptr, ptr %2, align 8
  %4 = getelementptr inbounds nuw %"class.std::ios_base", ptr %3, i32 0, i32 5
  %5 = load i32, ptr %4, align 8, !tbaa !61
  ret i32 %5
}

; Function Attrs: mustprogress nounwind uwtable
define linkonce_odr dso_local noundef i64 @_ZNSt11char_traitsIcE6lengthEPKc(ptr noundef %0) #8 comdat align 2 {
  %2 = alloca ptr, align 8
  store ptr %0, ptr %2, align 8, !tbaa !13
  %3 = load ptr, ptr %2, align 8, !tbaa !13
  %4 = call i64 @strlen(ptr noundef %3) #3
  ret i64 %4
}

; Function Attrs: mustprogress uwtable
define available_externally void @_ZNSt9basic_iosIcSt11char_traitsIcEE8setstateESt12_Ios_Iostate(ptr noundef nonnull align 8 dereferenceable(264) %0, i32 noundef %1) #4 align 2 {
  %3 = alloca ptr, align 8
  %4 = alloca i32, align 4
  store ptr %0, ptr %3, align 8, !tbaa !57
  store i32 %1, ptr %4, align 4, !tbaa !59
  %5 = load ptr, ptr %3, align 8
  %6 = call noundef i32 @_ZNKSt9basic_iosIcSt11char_traitsIcEE7rdstateEv(ptr noundef nonnull align 8 dereferenceable(264) %5)
  %7 = load i32, ptr %4, align 4, !tbaa !59
  %8 = call noundef i32 @_ZStorSt12_Ios_IostateS_(i32 noundef %6, i32 noundef %7)
  call void @_ZNSt9basic_iosIcSt11char_traitsIcEE5clearESt12_Ios_Iostate(ptr noundef nonnull align 8 dereferenceable(264) %5, i32 noundef %8)
  ret void
}

; Function Attrs: inlinehint mustprogress uwtable
define available_externally noundef nonnull align 8 dereferenceable(8) ptr @_ZStlsISt11char_traitsIcEERSt13basic_ostreamIcT_ES5_PKc(ptr noundef nonnull align 8 dereferenceable(8) %0, ptr noundef %1) #9 {
  %3 = alloca ptr, align 8
  %4 = alloca ptr, align 8
  store ptr %0, ptr %3, align 8, !tbaa !25
  store ptr %1, ptr %4, align 8, !tbaa !13
  %5 = load ptr, ptr %4, align 8, !tbaa !13
  %6 = icmp ne ptr %5, null
  br i1 %6, label %13, label %7

7:                                                ; preds = %2
  %8 = load ptr, ptr %3, align 8, !tbaa !25
  %9 = load ptr, ptr %8, align 8, !tbaa !27
  %10 = getelementptr i8, ptr %9, i64 -24
  %11 = load i64, ptr %10, align 8
  %12 = getelementptr inbounds i8, ptr %8, i64 %11
  call void @_ZNSt9basic_iosIcSt11char_traitsIcEE8setstateESt12_Ios_Iostate(ptr noundef nonnull align 8 dereferenceable(264) %12, i32 noundef 1)
  br label %19

13:                                               ; preds = %2
  %14 = load ptr, ptr %3, align 8, !tbaa !25
  %15 = load ptr, ptr %4, align 8, !tbaa !13
  %16 = load ptr, ptr %4, align 8, !tbaa !13
  %17 = call noundef i64 @_ZNSt11char_traitsIcE6lengthEPKc(ptr noundef %16)
  %18 = call noundef nonnull align 8 dereferenceable(8) ptr @_ZSt16__ostream_insertIcSt11char_traitsIcEERSt13basic_ostreamIT_T0_ES6_PKS3_l(ptr noundef nonnull align 8 dereferenceable(8) %14, ptr noundef %15, i64 noundef %17)
  br label %19

19:                                               ; preds = %13, %7
  %20 = load ptr, ptr %3, align 8, !tbaa !25
  ret ptr %20
}

; Function Attrs: mustprogress uwtable
define available_externally noundef nonnull align 8 dereferenceable(8) ptr @_ZNSolsEPFRSoS_E(ptr noundef nonnull align 8 dereferenceable(8) %0, ptr noundef %1) #4 align 2 {
  %3 = alloca ptr, align 8
  %4 = alloca ptr, align 8
  store ptr %0, ptr %3, align 8, !tbaa !25
  store ptr %1, ptr %4, align 8, !tbaa !36
  %5 = load ptr, ptr %3, align 8
  %6 = load ptr, ptr %4, align 8, !tbaa !36
  %7 = call noundef nonnull align 8 dereferenceable(8) ptr %6(ptr noundef nonnull align 8 dereferenceable(8) %5)
  ret ptr %7
}

; Function Attrs: mustprogress uwtable
define linkonce_odr dso_local noundef nonnull align 8 dereferenceable(8) ptr @_ZN3ozz3log6LoggerlsIA29_cEERSoRKT_(ptr noundef nonnull align 8 dereferenceable(9) %0, ptr noundef nonnull align 1 dereferenceable(29) %1) #4 comdat align 2 {
  %3 = alloca ptr, align 8
  %4 = alloca ptr, align 8
  store ptr %0, ptr %3, align 8, !tbaa !29
  store ptr %1, ptr %4, align 8, !tbaa !13
  %5 = load ptr, ptr %3, align 8
  %6 = getelementptr inbounds nuw %"class.ozz::log::Logger", ptr %5, i32 0, i32 0
  %7 = load ptr, ptr %6, align 8, !tbaa !34
  %8 = load ptr, ptr %4, align 8, !tbaa !13
  %9 = getelementptr inbounds [29 x i8], ptr %8, i64 0, i64 0
  %10 = call noundef nonnull align 8 dereferenceable(8) ptr @_ZStlsISt11char_traitsIcEERSt13basic_ostreamIcT_ES5_PKc(ptr noundef nonnull align 8 dereferenceable(8) %7, ptr noundef %9)
  ret ptr %10
}

; Function Attrs: mustprogress nounwind uwtable
define linkonce_odr dso_local noundef ptr @_ZNK3ozz7options11TypedOptionIPKcEcvS3_Ev(ptr noundef nonnull align 8 dereferenceable(56) %0) #8 comdat align 2 {
  %2 = alloca ptr, align 8
  store ptr %0, ptr %2, align 8, !tbaa !11
  %3 = load ptr, ptr %2, align 8
  %4 = getelementptr inbounds nuw %"class.ozz::options::TypedOption", ptr %3, i32 0, i32 2
  %5 = load ptr, ptr %4, align 8, !tbaa !22
  ret ptr %5
}

; Function Attrs: mustprogress uwtable
define dso_local void @_Z18InitializeLogLevelv() #4 personality ptr @__gxx_personality_v0 {
  %1 = alloca i32, align 4
  %2 = alloca %"class.ozz::log::LogV", align 8
  %3 = alloca ptr, align 8
  %4 = alloca i32, align 4
  call void @llvm.lifetime.start.p0(i64 4, ptr %1) #3
  %5 = call noundef i32 @_ZN3ozz3log8GetLevelEv()
  store i32 %5, ptr %1, align 4, !tbaa !37
  %6 = call noundef ptr @_ZNK3ozz7options11TypedOptionIPKcEcvS3_Ev(ptr noundef nonnull align 8 dereferenceable(56) @_ZL17OPTIONS_log_level)
  %7 = call i32 @strcmp(ptr noundef %6, ptr noundef @.str.17) #14
  %8 = icmp eq i32 %7, 0
  br i1 %8, label %9, label %10

9:                                                ; preds = %0
  store i32 0, ptr %1, align 4, !tbaa !37
  br label %22

10:                                               ; preds = %0
  %11 = call noundef ptr @_ZNK3ozz7options11TypedOptionIPKcEcvS3_Ev(ptr noundef nonnull align 8 dereferenceable(56) @_ZL17OPTIONS_log_level)
  %12 = call i32 @strcmp(ptr noundef %11, ptr noundef @.str.16) #14
  %13 = icmp eq i32 %12, 0
  br i1 %13, label %14, label %15

14:                                               ; preds = %10
  store i32 1, ptr %1, align 4, !tbaa !37
  br label %21

15:                                               ; preds = %10
  %16 = call noundef ptr @_ZNK3ozz7options11TypedOptionIPKcEcvS3_Ev(ptr noundef nonnull align 8 dereferenceable(56) @_ZL17OPTIONS_log_level)
  %17 = call i32 @strcmp(ptr noundef %16, ptr noundef @.str.18) #14
  %18 = icmp eq i32 %17, 0
  br i1 %18, label %19, label %20

19:                                               ; preds = %15
  store i32 2, ptr %1, align 4, !tbaa !37
  br label %20

20:                                               ; preds = %19, %15
  br label %21

21:                                               ; preds = %20, %14
  br label %22

22:                                               ; preds = %21, %9
  %23 = load i32, ptr %1, align 4, !tbaa !37
  %24 = call noundef i32 @_ZN3ozz3log8SetLevelENS0_5LevelE(i32 noundef %23)
  call void @llvm.lifetime.start.p0(i64 16, ptr %2) #3
  call void @_ZN3ozz3log4LogVC1Ev(ptr noundef nonnull align 8 dereferenceable(9) %2)
  %25 = invoke noundef nonnull align 8 dereferenceable(8) ptr @_ZN3ozz3log6LoggerlsIA29_cEERSoRKT_(ptr noundef nonnull align 8 dereferenceable(9) %2, ptr noundef nonnull align 1 dereferenceable(29) @.str.19)
          to label %26 unwind label %29

26:                                               ; preds = %22
  %27 = invoke noundef nonnull align 8 dereferenceable(8) ptr @_ZNSolsEPFRSoS_E(ptr noundef nonnull align 8 dereferenceable(8) %25, ptr noundef @_ZSt4endlIcSt11char_traitsIcEERSt13basic_ostreamIT_T0_ES6_)
          to label %28 unwind label %29

28:                                               ; preds = %26
  call void @_ZN3ozz3log6LoggerD2Ev(ptr noundef nonnull align 8 dereferenceable(9) %2) #3
  call void @llvm.lifetime.end.p0(i64 16, ptr %2) #3
  call void @llvm.lifetime.end.p0(i64 4, ptr %1) #3
  ret void

29:                                               ; preds = %26, %22
  %30 = landingpad { ptr, i32 }
          cleanup
  %31 = extractvalue { ptr, i32 } %30, 0
  store ptr %31, ptr %3, align 8
  %32 = extractvalue { ptr, i32 } %30, 1
  store i32 %32, ptr %4, align 4
  call void @_ZN3ozz3log6LoggerD2Ev(ptr noundef nonnull align 8 dereferenceable(9) %2) #3
  call void @llvm.lifetime.end.p0(i64 16, ptr %2) #3
  call void @llvm.lifetime.end.p0(i64 4, ptr %1) #3
  br label %33

33:                                               ; preds = %29
  %34 = load ptr, ptr %3, align 8
  %35 = load i32, ptr %4, align 4
  %36 = insertvalue { ptr, i32 } poison, ptr %34, 0
  %37 = insertvalue { ptr, i32 } %36, i32 %35, 1
  resume { ptr, i32 } %37
}