; Function Attrs: mustprogress uwtable
define dso_local void @_Z18InitializeLogLevelv() local_unnamed_addr #3 personality ptr @__gxx_personality_v0 {
  %1 = alloca %"class.ozz::log::LogV", align 8
  %2 = tail call noundef i32 @_ZN3ozz3log8GetLevelEv()
  %3 = load ptr, ptr getelementptr inbounds nuw (i8, ptr @_ZL17OPTIONS_log_level, i64 48), align 8, !tbaa !13
  %4 = tail call i32 @strcmp(ptr noundef nonnull dereferenceable(1) %3, ptr noundef nonnull dereferenceable(7) @.str.17) #16
  %5 = icmp eq i32 %4, 0
  br i1 %5, label %12, label %6

6:                                                ; preds = %0
  %7 = tail call i32 @strcmp(ptr noundef nonnull dereferenceable(1) %3, ptr noundef nonnull dereferenceable(9) @.str.16) #16
  %8 = icmp eq i32 %7, 0
  br i1 %8, label %12, label %9

9:                                                ; preds = %6
  %10 = tail call i32 @strcmp(ptr noundef nonnull dereferenceable(1) %3, ptr noundef nonnull dereferenceable(8) @.str.18) #16
  %11 = icmp eq i32 %10, 0
  %spec.select = select i1 %11, i32 2, i32 %2
  br label %12

12:                                               ; preds = %9, %6, %0
  %.0 = phi i32 [ 0, %0 ], [ 1, %6 ], [ %spec.select, %9 ]
  %13 = tail call noundef i32 @_ZN3ozz3log8SetLevelENS0_5LevelE(i32 noundef %.0)
  call void @llvm.lifetime.start.p0(i64 16, ptr nonnull %1) #17
  call void @_ZN3ozz3log4LogVC1Ev(ptr noundef nonnull align 8 dereferenceable(9) %1)
  %14 = load ptr, ptr %1, align 8, !tbaa !9
  %15 = invoke noundef nonnull align 8 dereferenceable(8) ptr @_ZSt16__ostream_insertIcSt11char_traitsIcEERSt13basic_ostreamIT_T0_ES6_PKS3_l(ptr noundef nonnull align 8 dereferenceable(8) %14, ptr noundef nonnull @.str.19, i64 noundef 28)
          to label %_ZN3ozz3log6LoggerlsIA29_cEERSoRKT_.exit unwind label %35

_ZN3ozz3log6LoggerlsIA29_cEERSoRKT_.exit:         ; preds = %12
  %16 = load ptr, ptr %14, align 8, !tbaa !16
  %17 = getelementptr i8, ptr %16, i64 -24
  %18 = load i64, ptr %17, align 8
  %19 = getelementptr inbounds i8, ptr %14, i64 %18
  %20 = getelementptr inbounds nuw i8, ptr %19, i64 240
  %21 = load ptr, ptr %20, align 8, !tbaa !29
  %.not.i.i.i = icmp eq ptr %21, null
  br i1 %.not.i.i.i, label %22, label %_ZSt13__check_facetISt5ctypeIcEERKT_PS3_.exit.i.i

22:                                               ; preds = %_ZN3ozz3log6LoggerlsIA29_cEERSoRKT_.exit
  invoke void @_ZSt16__throw_bad_castv() #18
          to label %.noexc unwind label %35

.noexc:                                           ; preds = %22
  unreachable

_ZSt13__check_facetISt5ctypeIcEERKT_PS3_.exit.i.i: ; preds = %_ZN3ozz3log6LoggerlsIA29_cEERSoRKT_.exit
  %23 = getelementptr inbounds nuw i8, ptr %21, i64 56
  %24 = load i8, ptr %23, align 8, !tbaa !35
  %.not.i1.i.i = icmp eq i8 %24, 0
  br i1 %.not.i1.i.i, label %28, label %25

25:                                               ; preds = %_ZSt13__check_facetISt5ctypeIcEERKT_PS3_.exit.i.i
  %26 = getelementptr inbounds nuw i8, ptr %21, i64 67
  %27 = load i8, ptr %26, align 1, !tbaa !41
  br label %_ZNKSt9basic_iosIcSt11char_traitsIcEE5widenEc.exit.i

28:                                               ; preds = %_ZSt13__check_facetISt5ctypeIcEERKT_PS3_.exit.i.i
  invoke void @_ZNKSt5ctypeIcE13_M_widen_initEv(ptr noundef nonnull align 8 dereferenceable(570) %21)
          to label %.noexc2 unwind label %35

.noexc2:                                          ; preds = %28
  %29 = load ptr, ptr %21, align 8, !tbaa !16
  %30 = getelementptr inbounds nuw i8, ptr %29, i64 48
  %31 = load ptr, ptr %30, align 8
  %32 = invoke noundef signext i8 %31(ptr noundef nonnull align 8 dereferenceable(570) %21, i8 noundef signext 10)
          to label %_ZNKSt9basic_iosIcSt11char_traitsIcEE5widenEc.exit.i unwind label %35

_ZNKSt9basic_iosIcSt11char_traitsIcEE5widenEc.exit.i: ; preds = %.noexc2, %25
  %.0.i.i.i = phi i8 [ %27, %25 ], [ %32, %.noexc2 ]
  %33 = invoke noundef nonnull align 8 dereferenceable(8) ptr @_ZNSo3putEc(ptr noundef nonnull align 8 dereferenceable(8) %14, i8 noundef signext %.0.i.i.i)
          to label %.noexc4 unwind label %35

.noexc4:                                          ; preds = %_ZNKSt9basic_iosIcSt11char_traitsIcEE5widenEc.exit.i
  %34 = invoke noundef nonnull align 8 dereferenceable(8) ptr @_ZNSo5flushEv(ptr noundef nonnull align 8 dereferenceable(8) %33)
          to label %_ZNSolsEPFRSoS_E.exit unwind label %35

_ZNSolsEPFRSoS_E.exit:                            ; preds = %.noexc4
  call void @_ZN3ozz3log6LoggerD2Ev(ptr noundef nonnull align 8 dereferenceable(9) %1) #17
  call void @llvm.lifetime.end.p0(i64 16, ptr nonnull %1) #17
  ret void

35:                                               ; preds = %.noexc4, %_ZNKSt9basic_iosIcSt11char_traitsIcEE5widenEc.exit.i, %.noexc2, %28, %22, %12
  %36 = landingpad { ptr, i32 }
          cleanup
  call void @_ZN3ozz3log6LoggerD2Ev(ptr noundef nonnull align 8 dereferenceable(9) %1) #17
  call void @llvm.lifetime.end.p0(i64 16, ptr nonnull %1) #17
  resume { ptr, i32 } %36
}